target datalayout = "e-m:e-p270:32:32-p271:32:32-p272:64:64-i64:64-i128:128-f80:128-n8:16:32:64-S128"
target triple = "x86_64-pc-linux-gnu"

%struct.lean_object = type { i32, i32 }
%"struct.lean::mpz_object" = type { %struct.lean_object, %"class.lean::mpz" }
%"class.lean::mpz" = type { [1 x %struct.__mpz_struct] }
%struct.__mpz_struct = type { i32, i32, ptr }

; Function Attrs: inlinehint mustprogress nounwind uwtable
define linkonce_odr hidden noundef ptr @_ZN4lean6to_mpzEP11lean_object(ptr noundef %0) #3 comdat {
  %2 = alloca ptr, align 8
  store ptr %0, ptr %2, align 8, !tbaa !3
  %3 = load ptr, ptr %2, align 8, !tbaa !3
  ret ptr %3
}

; Function Attrs: mustprogress uwtable
define linkonce_odr hidden noundef zeroext i1 @_ZN4leaneqERKNS_3mpzES2_(ptr noundef nonnull align 8 dereferenceable(16) %0, ptr noundef nonnull align 8 dereferenceable(16) %1) #0 comdat {
  %3 = alloca ptr, align 8
  %4 = alloca ptr, align 8
  store ptr %0, ptr %3, align 8, !tbaa !10
  store ptr %1, ptr %4, align 8, !tbaa !10
  %5 = load ptr, ptr %3, align 8, !tbaa !10
  %6 = load ptr, ptr %4, align 8, !tbaa !10
  %7 = call noundef i32 @_ZN4lean3cmpERKNS_3mpzES2_(ptr noundef nonnull align 8 dereferenceable(16) %5, ptr noundef nonnull align 8 dereferenceable(16) %6)
  %8 = icmp eq i32 %7, 0
  ret i1 %8
}

; Function Attrs: inlinehint mustprogress uwtable
define linkonce_odr hidden noundef nonnull align 8 dereferenceable(16) ptr @_ZN4lean9mpz_valueEP11lean_object(ptr noundef %0) #4 comdat {
  %2 = alloca ptr, align 8
  store ptr %0, ptr %2, align 8, !tbaa !3
  %3 = load ptr, ptr %2, align 8, !tbaa !3
  %4 = call noundef ptr @_ZN4lean6to_mpzEP11lean_object(ptr noundef %3)
  %5 = getelementptr inbounds nuw %"struct.lean::mpz_object", ptr %4, i32 0, i32 1
  ret ptr %5
}

; Function Attrs: inlinehint mustprogress nounwind uwtable
define internal noundef i32 @_ZL14lean_ptr_otherP11lean_object(ptr noundef %0) #3 {
  %2 = alloca ptr, align 8
  store ptr %0, ptr %2, align 8, !tbaa !3
  %3 = load ptr, ptr %2, align 8, !tbaa !3
  %4 = getelementptr inbounds nuw %struct.lean_object, ptr %3, i32 0, i32 1
  %5 = load i32, ptr %4, align 4
  %6 = lshr i32 %5, 16
  %7 = and i32 %6, 255
  ret i32 %7
}

; Function Attrs: inlinehint mustprogress nounwind uwtable
define internal noundef zeroext i8 @_ZL12lean_ptr_tagP11lean_object(ptr noundef %0) #3 {
  %2 = alloca ptr, align 8
  store ptr %0, ptr %2, align 8, !tbaa !3
  %3 = load ptr, ptr %2, align 8, !tbaa !3
  %4 = getelementptr inbounds nuw %struct.lean_object, ptr %3, i32 0, i32 1
  %5 = load i32, ptr %4, align 4
  %6 = lshr i32 %5, 24
  %7 = trunc i32 %6 to i8
  ret i8 %7
}

; Function Attrs: mustprogress uwtable
define zeroext i8 @lean_sharecommon_eq(ptr noundef %0, ptr noundef %1) #0 {
  %3 = alloca i8, align 1
  %4 = alloca ptr, align 8
  %5 = alloca ptr, align 8
  %6 = alloca i64, align 8
  %7 = alloca i64, align 8
  %8 = alloca i32, align 4
  %9 = alloca i8, align 1
  %10 = alloca i64, align 8
  store ptr %0, ptr %4, align 8, !tbaa !3
  store ptr %1, ptr %5, align 8, !tbaa !3
  call void @llvm.lifetime.start.p0(i64 8, ptr %6) #17
  %11 = load ptr, ptr %4, align 8, !tbaa !3
  %12 = call i64 @lean_object_data_byte_size(ptr noundef %11)
  store i64 %12, ptr %6, align 8, !tbaa !7
  call void @llvm.lifetime.start.p0(i64 8, ptr %7) #17
  %13 = load ptr, ptr %5, align 8, !tbaa !3
  %14 = call i64 @lean_object_data_byte_size(ptr noundef %13)
  store i64 %14, ptr %7, align 8, !tbaa !7
  %15 = load i64, ptr %6, align 8, !tbaa !7
  %16 = load i64, ptr %7, align 8, !tbaa !7
  %17 = icmp ne i64 %15, %16
  br i1 %17, label %18, label %19

18:                                               ; preds = %2
  store i8 0, ptr %3, align 1
  store i32 1, ptr %8, align 4
  br label %61

19:                                               ; preds = %2
  call void @llvm.lifetime.start.p0(i64 1, ptr %9) #17
  %20 = load ptr, ptr %4, align 8, !tbaa !3
  %21 = call noundef zeroext i8 @_ZL12lean_ptr_tagP11lean_object(ptr noundef %20)
  store i8 %21, ptr %9, align 1, !tbaa !9
  %22 = load i8, ptr %9, align 1, !tbaa !9
  %23 = zext i8 %22 to i32
  %24 = load ptr, ptr %5, align 8, !tbaa !3
  %25 = call noundef zeroext i8 @_ZL12lean_ptr_tagP11lean_object(ptr noundef %24)
  %26 = zext i8 %25 to i32
  %27 = icmp ne i32 %23, %26
  br i1 %27, label %28, label %29

28:                                               ; preds = %19
  store i8 0, ptr %3, align 1
  store i32 1, ptr %8, align 4
  br label %60

29:                                               ; preds = %19
  %30 = load ptr, ptr %4, align 8, !tbaa !3
  %31 = call noundef i32 @_ZL14lean_ptr_otherP11lean_object(ptr noundef %30)
  %32 = load ptr, ptr %5, align 8, !tbaa !3
  %33 = call noundef i32 @_ZL14lean_ptr_otherP11lean_object(ptr noundef %32)
  %34 = icmp ne i32 %31, %33
  br i1 %34, label %35, label %36

35:                                               ; preds = %29
  store i8 0, ptr %3, align 1
  store i32 1, ptr %8, align 4
  br label %60

36:                                               ; preds = %29
  %37 = load i8, ptr %9, align 1, !tbaa !9
  %38 = zext i8 %37 to i32
  %39 = icmp eq i32 %38, 250
  br i1 %39, label %40, label %47

40:                                               ; preds = %36
  %41 = load ptr, ptr %4, align 8, !tbaa !3
  %42 = call noundef nonnull align 8 dereferenceable(16) ptr @_ZN4lean9mpz_valueEP11lean_object(ptr noundef %41)
  %43 = load ptr, ptr %5, align 8, !tbaa !3
  %44 = call noundef nonnull align 8 dereferenceable(16) ptr @_ZN4lean9mpz_valueEP11lean_object(ptr noundef %43)
  %45 = call noundef zeroext i1 @_ZN4leaneqERKNS_3mpzES2_(ptr noundef nonnull align 8 dereferenceable(16) %42, ptr noundef nonnull align 8 dereferenceable(16) %44)
  %46 = zext i1 %45 to i8
  store i8 %46, ptr %3, align 1
  store i32 1, ptr %8, align 4
  br label %60

47:                                               ; preds = %36
  call void @llvm.lifetime.start.p0(i64 8, ptr %10) #17
  store i64 8, ptr %10, align 8, !tbaa !7
  %48 = load ptr, ptr %4, align 8, !tbaa !3
  %49 = load i64, ptr %10, align 8, !tbaa !7
  %50 = getelementptr inbounds nuw i8, ptr %48, i64 %49
  %51 = load ptr, ptr %5, align 8, !tbaa !3
  %52 = load i64, ptr %10, align 8, !tbaa !7
  %53 = getelementptr inbounds nuw i8, ptr %51, i64 %52
  %54 = load i64, ptr %6, align 8, !tbaa !7
  %55 = load i64, ptr %10, align 8, !tbaa !7
  %56 = sub i64 %54, %55
  %57 = call i32 @memcmp(ptr noundef %50, ptr noundef %53, i64 noundef %56) #18
  %58 = icmp eq i32 %57, 0
  %59 = zext i1 %58 to i8
  store i8 %59, ptr %3, align 1
  store i32 1, ptr %8, align 4
  call void @llvm.lifetime.end.p0(i64 8, ptr %10) #17
  br label %60

60:                                               ; preds = %47, %40, %35, %28
  call void @llvm.lifetime.end.p0(i64 1, ptr %9) #17
  br label %61

61:                                               ; preds = %60, %18
  call void @llvm.lifetime.end.p0(i64 8, ptr %7) #17
  call void @llvm.lifetime.end.p0(i64 8, ptr %6) #17
  %62 = load i8, ptr %3, align 1
  ret i8 %62
}