; Function Attrs: mustprogress uwtable
define zeroext range(i8 0, 2) i8 @lean_sharecommon_eq(ptr noundef %0, ptr noundef %1) local_unnamed_addr #0 {
  %3 = tail call i64 @lean_object_data_byte_size(ptr noundef %0)
  %4 = tail call i64 @lean_object_data_byte_size(ptr noundef %1)
  %.not = icmp eq i64 %3, %4
  br i1 %.not, label %5, label %24

5:                                                ; preds = %2
  %6 = getelementptr i8, ptr %0, i64 4
  %.val = load i32, ptr %6, align 4
  %7 = lshr i32 %.val, 24
  %8 = getelementptr i8, ptr %1, i64 4
  %.val22 = load i32, ptr %8, align 4
  %9 = lshr i32 %.val22, 24
  %.not20 = icmp eq i32 %7, %9
  br i1 %.not20, label %10, label %23

10:                                               ; preds = %5
  %11 = xor i32 %.val22, %.val
  %12 = and i32 %11, 16711680
  %.not21 = icmp eq i32 %12, 0
  br i1 %.not21, label %13, label %23

13:                                               ; preds = %10
  %14 = icmp eq i32 %7, 250
  %15 = getelementptr inbounds nuw i8, ptr %0, i64 8
  %16 = getelementptr inbounds nuw i8, ptr %1, i64 8
  br i1 %14, label %17, label %20

17:                                               ; preds = %13
  %18 = tail call noundef i32 @_ZN4lean3cmpERKNS_3mpzES2_(ptr noundef nonnull align 8 dereferenceable(16) %15, ptr noundef nonnull align 8 dereferenceable(16) %16)
  %19 = icmp eq i32 %18, 0
  br label %23

20:                                               ; preds = %13
  %21 = add i64 %3, -8
  %bcmp = tail call i32 @bcmp(ptr nonnull %15, ptr nonnull %16, i64 %21)
  %22 = icmp eq i32 %bcmp, 0
  br label %23

23:                                               ; preds = %10, %5, %20, %17
  %.1.shrunk = phi i1 [ %19, %17 ], [ %22, %20 ], [ false, %5 ], [ false, %10 ]
  %.1 = zext i1 %.1.shrunk to i8
  br label %24

24:                                               ; preds = %2, %23
  %.0 = phi i8 [ %.1, %23 ], [ 0, %2 ]
  ret i8 %.0
}